target datalayout = "e-m:e-p270:32:32-p271:32:32-p272:64:64-i64:64-i128:128-f80:128-n8:16:32:64-S128"
target triple = "x86_64-pc-linux-gnu"

%class.methodHandle = type { ptr, ptr }
%class.ThreadShadow = type <{ ptr, ptr, ptr, i32, [4 x i8] }>
%class.constantTag = type { i8 }
%class.LinkInfo = type <{ ptr, ptr, ptr, ptr, %class.methodHandle, i8, i8, %class.constantTag, [5 x i8] }>

@_ZN8LinkInfoC1ERK18constantPoolHandleiN9Bytecodes4CodeEP10JavaThread = hidden unnamed_addr alias void (ptr, ptr, i32, i32, ptr), ptr @_ZN8LinkInfoC2ERK18constantPoolHandleiN9Bytecodes4CodeEP10JavaThread

; Function Attrs: mustprogress nounwind uwtable
define linkonce_odr hidden void @_ZN8LinkInfoD2Ev(ptr noundef nonnull align 8 dereferenceable(51) %0) unnamed_addr #1 comdat align 2 {
  %2 = alloca ptr, align 8
  store ptr %0, ptr %2, align 8
  %3 = load ptr, ptr %2, align 8
  %4 = getelementptr inbounds %class.LinkInfo, ptr %3, i32 0, i32 4
  call void @_ZN12methodHandleD1Ev(ptr noundef nonnull align 8 dereferenceable(16) %4) #10
  ret void
}

; Function Attrs: mustprogress nounwind uwtable
define linkonce_odr hidden noundef zeroext i1 @_ZNK12ThreadShadow21has_pending_exceptionEv(ptr noundef nonnull align 8 dereferenceable(28) %0) #1 comdat align 2 {
  %2 = alloca ptr, align 8
  store ptr %0, ptr %2, align 8
  %3 = load ptr, ptr %2, align 8
  %4 = getelementptr inbounds %class.ThreadShadow, ptr %3, i32 0, i32 1
  %5 = load ptr, ptr %4, align 8
  %6 = icmp ne ptr %5, null
  ret i1 %6
}

; Function Attrs: mustprogress nounwind uwtable
define hidden void @_ZN12LinkResolver20resolve_invokestaticER8CallInfoRK18constantPoolHandleiP10JavaThread(ptr noundef nonnull align 8 dereferenceable(64) %0, ptr noundef nonnull align 8 dereferenceable(16) %1, i32 noundef %2, ptr noundef %3) #1 align 2 {
  %5 = alloca ptr, align 8
  %6 = alloca ptr, align 8
  %7 = alloca i32, align 4
  %8 = alloca ptr, align 8
  %9 = alloca %class.LinkInfo, align 8
  %10 = alloca i32, align 4
  store ptr %0, ptr %5, align 8
  store ptr %1, ptr %6, align 8
  store i32 %2, ptr %7, align 4
  store ptr %3, ptr %8, align 8
  %11 = load ptr, ptr %6, align 8
  %12 = load i32, ptr %7, align 4
  %13 = load ptr, ptr %8, align 8
  call void @_ZN8LinkInfoC1ERK18constantPoolHandleiN9Bytecodes4CodeEP10JavaThread(ptr noundef nonnull align 8 dereferenceable(51) %9, ptr noundef nonnull align 8 dereferenceable(16) %11, i32 noundef %12, i32 noundef 184, ptr noundef %13)
  %14 = load ptr, ptr %8, align 8
  %15 = call noundef zeroext i1 @_ZNK12ThreadShadow21has_pending_exceptionEv(ptr noundef nonnull align 8 dereferenceable(28) %14)
  br i1 %15, label %16, label %17

16:                                               ; preds = %4
  store i32 1, ptr %10, align 4
  br label %24

17:                                               ; preds = %4
  %18 = load ptr, ptr %5, align 8
  %19 = load ptr, ptr %8, align 8
  call void @_ZN12LinkResolver19resolve_static_callER8CallInfoRK8LinkInfobP10JavaThread(ptr noundef nonnull align 8 dereferenceable(64) %18, ptr noundef nonnull align 8 dereferenceable(51) %9, i1 noundef zeroext true, ptr noundef %19)
  %20 = load ptr, ptr %8, align 8
  %21 = call noundef zeroext i1 @_ZNK12ThreadShadow21has_pending_exceptionEv(ptr noundef nonnull align 8 dereferenceable(28) %20)
  br i1 %21, label %22, label %23

22:                                               ; preds = %17
  store i32 1, ptr %10, align 4
  br label %24

23:                                               ; preds = %17
  store i32 0, ptr %10, align 4
  br label %24

24:                                               ; preds = %23, %22, %16
  call void @_ZN8LinkInfoD2Ev(ptr noundef nonnull align 8 dereferenceable(51) %9) #10
  %25 = load i32, ptr %10, align 4
  switch i32 %25, label %27 [
    i32 0, label %26
    i32 1, label %26
  ]

26:                                               ; preds = %24, %24
  ret void

27:                                               ; preds = %24
  unreachable
}