; Function Attrs: mustprogress nounwind uwtable
define hidden void @_ZN12LinkResolver20resolve_invokestaticER8CallInfoRK18constantPoolHandleiP10JavaThread(ptr noundef nonnull align 8 dereferenceable(64) %0, ptr nocapture noundef nonnull readonly align 8 dereferenceable(16) %1, i32 noundef %2, ptr noundef %3) local_unnamed_addr #0 align 2 {
  %5 = alloca %class.LinkInfo, align 8
  call void @_ZN8LinkInfoC2ERK18constantPoolHandleiN9Bytecodes4CodeEP10JavaThread(ptr noundef nonnull align 8 dereferenceable(51) %5, ptr noundef nonnull align 8 dereferenceable(16) %1, i32 noundef %2, i32 noundef 184, ptr noundef %3)
  %6 = getelementptr inbounds i8, ptr %3, i64 8
  %7 = load ptr, ptr %6, align 8
  %.not = icmp eq ptr %7, null
  br i1 %.not, label %8, label %9

8:                                                ; preds = %4
  call void @_ZN12LinkResolver19resolve_static_callER8CallInfoRK8LinkInfobP10JavaThread(ptr noundef nonnull align 8 dereferenceable(64) %0, ptr noundef nonnull align 8 dereferenceable(51) %5, i1 noundef zeroext true, ptr noundef nonnull %3)
  br label %9

9:                                                ; preds = %8, %4
  %10 = getelementptr inbounds i8, ptr %5, i64 32
  call void @_ZN12methodHandleD1Ev(ptr noundef nonnull align 8 dereferenceable(16) %10) #10
  ret void
}